(lp1
I0
aI3
aI4
aI5
aI6
aI7
aI8
aI9
aI10
aI12
aI14
aI15
aI16
aI17
aI19
aI20
aI21
aI23
aI24
aI25
aI26
aI27
aI28
aI29
aI30
aI31
aI32
aI34
aI35
aI37
aI38
aI39
aI40
aI41
aI42
aI43
aI47
aI48
aI49
aI50
aI51
aI52
aI53
aI54
aI56
aI59
aI60
aI61
aI62
aI63
aI64
aI65
aI66
aI67
aI69
aI70
aI72
aI73
aI74
aI75
aI76
aI77
aI78
aI80
aI82
aI84
aI85
aI87
aI88
aI89
aI90
aI91
aI92
aI93
aI95
aI96
aI97
aI98
aI100
aI101
aI102
aI103
aI104
aI107
aI108
aI109
aI110
aI111
aI112
aI113
aI115
aI116
aI118
aI119
aI120
aI121
aI122
aI123
aI125
aI126
aI127
aI128
aI129
aI130
aI132
aI133
aI134
aI135
aI136
aI137
aI138
aI140
aI141
aI142
aI143
aI144
aI145
aI146
aI147
aI148
aI149
aI150
aI151
aI152
aI153
aI154
aI158
aI159
aI160
aI161
aI162
aI163
aI164
aI165
aI166
aI167
aI168
aI169
aI170
aI171
aI172
aI173
aI175
aI176
aI177
aI178
aI179
aI180
aI181
aI182
aI183
aI184
aI185
aI187
aI188
aI189
aI190
aI191
aI193
aI194
aI195
aI196
aI197
aI199
aI200
aI203
aI204
aI205
aI206
aI207
aI208
aI210
aI211
aI212
aI213
aI214
aI215
aI216
aI217
aI218
aI219
aI220
aI221
aI222
aI223
aI224
aI226
aI227
aI228
aI229
aI230
aI231
aI232
aI233
aI234
aI235
aI236
aI237
aI238
aI239
aI240
aI241
aI242
aI243
aI244
aI245
aI246
aI249
aI252
aI253
aI254
aI255
aI256
aI259
aI260
aI262
aI263
aI264
aI265
aI266
aI267
aI268
aI269
aI270
aI273
aI276
aI277
aI278
aI279
aI280
aI281
aI282
aI283
aI284
aI286
aI287
aI288
aI289
aI290
aI291
aI292
aI293
aI294
aI295
aI296
aI297
aI298
aI299
aI300
aI301
aI302
aI303
aI304
aI307
aI308
aI309
aI310
aI311
aI312
aI313
aI314
aI315
aI316
aI317
aI318
aI319
aI320
aI321
aI324
aI325
aI327
aI328
aI329
aI331
aI332
aI333
aI334
aI336
aI337
aI339
aI340
aI343
aI344
aI345
aI346
aI347
aI349
aI350
aI351
aI352
aI355
aI357
aI358
aI359
aI360
aI362
aI363
aI364
aI365
aI366
aI367
aI368
aI369
aI370
aI371
aI372
aI373
aI374
aI377
aI378
aI379
aI380
aI381
aI383
aI384
aI386
aI388
aI389
aI390
aI391
aI392
aI393
aI395
aI397
aI398
aI400
aI401
aI402
aI403
aI404
aI405
aI406
aI407
aI408
aI409
aI410
aI411
aI412
aI413
aI414
aI415
aI416
aI417
aI418
aI419
aI420
aI421
aI422
aI423
aI425
aI426
aI427
aI428
aI429
aI431
aI432
aI433
aI434
aI435
aI437
aI438
aI439
aI440
aI441
aI442
aI443
aI444
aI446
aI447
aI448
aI449
aI450
aI452
aI453
aI454
aI455
aI456
aI457
aI461
aI462
aI463
aI465
aI470
aI472
aI473
aI474
aI475
aI476
aI477
aI478
aI479
aI481
aI482
aI483
aI484
aI485
aI486
aI488
aI490
aI491
aI492
aI493
aI494
aI495
aI497
aI498
aI500
aI502
aI503
aI504
aI505
aI506
aI508
aI509
aI510
aI511
aI512
aI513
aI514
aI517
aI519
aI520
aI521
aI522
aI524
aI525
aI527
aI528
aI530
aI531
aI533
aI534
aI536
aI538
aI540
aI541
aI543
aI544
aI545
aI546
aI547
aI549
aI550
aI551
aI553
aI554
aI555
aI556
aI557
aI558
aI559
aI560
aI561
aI562
aI563
aI564
aI565
aI566
aI568
aI569
aI570
aI572
aI573
aI575
aI579
aI581
aI582
aI583
aI584
aI585
aI586
aI587
aI588
aI589
aI590
aI591
aI592
aI593
aI594
aI595
aI596
aI597
aI600
aI601
aI602
aI604
aI605
aI606
aI608
aI609
aI610
aI611
aI612
aI613
aI614
aI615
aI617
aI618
aI619
aI620
aI621
aI622
aI623
aI624
aI626
aI628
aI630
aI633
aI636
aI640
aI642
aI643
aI645
aI649
aI650
aI651
aI652
aI653
aI656
aI658
aI659
aI660
aI661
aI662
aI663
aI665
aI666
aI667
aI668
aI669
aI670
aI673
aI674
aI675
aI676
aI677
aI678
aI679
aI680
aI681
aI682
aI683
aI684
aI685
aI686
aI687
aI688
aI691
aI692
aI693
aI695
aI696
aI697
aI698
aI699
aI700
aI701
aI702
aI703
aI704
aI705
aI706
aI707
aI708
aI709
aI710
aI713
aI714
aI715
aI716
aI717
aI718
aI719
aI720
aI723
aI724
aI725
aI726
aI728
aI729
aI730
aI731
aI732
aI735
aI737
aI738
aI739
aI740
aI741
aI742
aI743
aI744
aI745
aI746
aI747
aI748
aI749
aI750
aI753
aI754
aI755
aI756
aI757
aI758
aI759
aI760
aI761
aI762
aI763
aI764
aI766
aI767
aI768
aI769
aI770
aI771
aI772
aI773
aI774
aI775
aI776
aI777
aI778
aI779
aI780
aI781
aI782
aI783
aI784
aI785
aI786
aI787
aI788
aI789
aI790
aI791
aI792
aI793
aI794
aI796
aI797
aI798
aI799
aI800
aI801
aI802
aI803
aI804
aI805
aI806
aI807
aI808
aI809
aI810
aI811
aI812
aI814
aI816
aI817
aI818
aI819
aI820
aI821
aI822
aI823
aI824
aI825
aI826
aI827
aI828
aI829
aI830
aI831
aI833
aI834
aI835
aI837
aI838
aI840
aI843
aI845
aI847
aI848
aI849
aI851
aI852
aI853
aI854
aI856
aI858
aI860
aI861
aI862
aI863
aI864
aI866
aI867
aI868
aI869
aI870
aI871
aI872
aI874
aI875
aI876
aI877
aI878
aI880
aI881
aI882
aI883
aI886
aI887
aI888
aI889
aI890
aI891
aI892
aI893
aI894
aI895
aI896
aI897
aI898
aI899
aI900
aI901
aI902
aI904
aI905
aI906
aI907
aI908
aI910
aI911
aI912
aI913
aI914
aI915
aI916
aI917
aI918
aI919
aI921
aI922
aI924
aI925
aI926
aI928
aI929
aI930
aI932
aI933
aI936
aI937
aI938
aI939
aI940
aI942
aI943
aI944
aI945
aI946
aI947
aI949
aI950
aI951
aI952
aI953
aI954
aI955
aI956
aI957
aI958
aI959
aI960
aI961
aI962
aI963
aI964
aI966
aI967
aI968
aI969
aI970
aI971
aI972
aI973
aI974
aI976
aI977
aI978
aI979
aI981
aI984
aI985
aI986
aI987
aI988
aI989
aI990
aI994
aI995
aI996
aI997
aI998
aI1000
aI1001
aI1002
aI1004
aI1005
aI1007
aI1008
aI1010
aI1011
aI1012
aI1014
aI1015
aI1016
aI1018
aI1019
aI1020
aI1021
aI1022
aI1023
aI1024
aI1025
aI1026
aI1027
aI1029
aI1030
aI1031
aI1033
aI1034
aI1035
aI1036
aI1037
aI1038
aI1039
aI1040
aI1041
aI1042
aI1043
aI1044
aI1045
aI1046
aI1048
aI1049
aI1050
aI1051
aI1052
aI1053
aI1056
aI1057
aI1058
aI1059
aI1062
aI1063
aI1064
aI1065
aI1066
aI1067
aI1068
aI1069
aI1070
aI1071
aI1072
aI1074
aI1075
aI1076
aI1077
aI1078
aI1079
aI1080
aI1081
aI1082
aI1085
aI1086
aI1087
aI1089
aI1090
aI1091
aI1092
aI1093
aI1095
aI1096
aI1097
aI1098
aI1099
aI1100
aI1101
aI1102
aI1103
aI1105
aI1106
aI1109
aI1110
aI1112
aI1113
aI1114
aI1115
aI1116
aI1117
aI1118
aI1119
aI1120
aI1121
aI1122
aI1123
aI1125
aI1126
aI1127
aI1129
aI1130
aI1131
aI1132
aI1133
aI1134
aI1135
aI1136
aI1137
aI1138
aI1139
aI1140
aI1141
aI1142
aI1143
aI1145
aI1146
aI1147
aI1148
aI1149
aI1150
aI1151
aI1152
aI1153
aI1154
aI1155
aI1156
aI1157
aI1158
aI1159
aI1160
aI1161
aI1162
aI1164
aI1165
aI1166
aI1167
aI1168
aI1169
aI1170
aI1171
aI1172
aI1173
aI1175
aI1177
aI1178
aI1179
aI1180
aI1181
aI1182
aI1183
aI1184
aI1185
aI1186
aI1187
aI1188
aI1189
aI1190
aI1191
aI1192
aI1193
aI1194
aI1195
aI1196
aI1197
aI1198
aI1199
aI1200
aI1201
aI1202
aI1203
aI1204
aI1205
aI1206
aI1207
aI1208
aI1209
aI1210
aI1211
aI1212
aI1214
aI1215
aI1216
aI1217
aI1218
aI1219
aI1220
aI1221
aI1222
aI1223
aI1224
aI1225
aI1226
aI1227
aI1228
aI1230
aI1231
aI1232
aI1233
aI1234
aI1235
aI1236
aI1237
aI1238
aI1240
aI1241
aI1242
aI1243
aI1244
aI1245
aI1246
aI1249
aI1250
aI1251
aI1253
aI1254
aI1255
aI1256
aI1257
aI1258
aI1262
aI1263
aI1264
aI1266
aI1267
aI1269
aI1270
aI1271
a.